target datalayout = "e-m:e-p270:32:32-p271:32:32-p272:64:64-i64:64-i128:128-f80:128-n8:16:32:64-S128"
target triple = "x86_64-pc-linux-gnu"

%struct._object = type { %union.anon, ptr }
%union.anon = type { i64 }
%struct.PyVarObject = type { %struct._object, i64 }
%struct.arraydescr = type { i8, i32, ptr, ptr, ptr, ptr, i32, i32 }
%struct.anon = type { i32, i32 }
%struct.arrayobject = type { %struct.PyVarObject, ptr, i64, ptr, ptr, i64 }

@PyExc_ValueError = external global ptr, align 8
@_Py_NoneStruct = external global %struct._object, align 8
@PyExc_BufferError = external global ptr, align 8
@.str.57 = private unnamed_addr constant [49 x i8] c"cannot resize an array that is exporting buffers\00", align 1
@.str.120 = private unnamed_addr constant [32 x i8] c"array.remove(x): x not in array\00", align 1

; Function Attrs: alwaysinline nounwind uwtable
define internal i32 @_Py_IsImmortal(ptr noundef %0) #4 {
  %2 = alloca ptr, align 8
  store ptr %0, ptr %2, align 8, !tbaa !3
  %3 = load ptr, ptr %2, align 8, !tbaa !3
  %4 = getelementptr inbounds nuw %struct._object, ptr %3, i32 0, i32 0
  %5 = getelementptr inbounds nuw %struct.anon, ptr %4, i32 0, i32 0
  %6 = load i32, ptr %5, align 8, !tbaa !36
  %7 = icmp slt i32 %6, 0
  %8 = zext i1 %7 to i32
  ret i32 %8
}

; Function Attrs: nounwind uwtable
define internal i32 @array_del_slice(ptr noundef %0, i64 noundef %1, i64 noundef %2) #0 {
  %4 = alloca i32, align 4
  %5 = alloca ptr, align 8
  %6 = alloca i64, align 8
  %7 = alloca i64, align 8
  %8 = alloca ptr, align 8
  %9 = alloca i64, align 8
  %10 = alloca i32, align 4
  store ptr %0, ptr %5, align 8, !tbaa !68
  store i64 %1, ptr %6, align 8, !tbaa !21
  store i64 %2, ptr %7, align 8, !tbaa !21
  call void @llvm.lifetime.start.p0(i64 8, ptr %8) #8
  call void @llvm.lifetime.start.p0(i64 8, ptr %9) #8
  %11 = load i64, ptr %6, align 8, !tbaa !21
  %12 = icmp slt i64 %11, 0
  br i1 %12, label %13, label %14

13:                                               ; preds = %3
  store i64 0, ptr %6, align 8, !tbaa !21
  br label %23

14:                                               ; preds = %3
  %15 = load i64, ptr %6, align 8, !tbaa !21
  %16 = load ptr, ptr %5, align 8, !tbaa !68
  %17 = call i64 @Py_SIZE(ptr noundef %16)
  %18 = icmp sgt i64 %15, %17
  br i1 %18, label %19, label %22

19:                                               ; preds = %14
  %20 = load ptr, ptr %5, align 8, !tbaa !68
  %21 = call i64 @Py_SIZE(ptr noundef %20)
  store i64 %21, ptr %6, align 8, !tbaa !21
  br label %22

22:                                               ; preds = %19, %14
  br label %23

23:                                               ; preds = %22, %13
  %24 = load i64, ptr %7, align 8, !tbaa !21
  %25 = icmp slt i64 %24, 0
  br i1 %25, label %26, label %27

26:                                               ; preds = %23
  store i64 0, ptr %7, align 8, !tbaa !21
  br label %27

27:                                               ; preds = %26, %23
  %28 = load i64, ptr %7, align 8, !tbaa !21
  %29 = load i64, ptr %6, align 8, !tbaa !21
  %30 = icmp slt i64 %28, %29
  br i1 %30, label %31, label %33

31:                                               ; preds = %27
  %32 = load i64, ptr %6, align 8, !tbaa !21
  store i64 %32, ptr %7, align 8, !tbaa !21
  br label %42

33:                                               ; preds = %27
  %34 = load i64, ptr %7, align 8, !tbaa !21
  %35 = load ptr, ptr %5, align 8, !tbaa !68
  %36 = call i64 @Py_SIZE(ptr noundef %35)
  %37 = icmp sgt i64 %34, %36
  br i1 %37, label %38, label %41

38:                                               ; preds = %33
  %39 = load ptr, ptr %5, align 8, !tbaa !68
  %40 = call i64 @Py_SIZE(ptr noundef %39)
  store i64 %40, ptr %7, align 8, !tbaa !21
  br label %41

41:                                               ; preds = %38, %33
  br label %42

42:                                               ; preds = %41, %31
  %43 = load ptr, ptr %5, align 8, !tbaa !68
  %44 = getelementptr inbounds nuw %struct.arrayobject, ptr %43, i32 0, i32 1
  %45 = load ptr, ptr %44, align 8, !tbaa !70
  store ptr %45, ptr %8, align 8, !tbaa !47
  %46 = load i64, ptr %7, align 8, !tbaa !21
  %47 = load i64, ptr %6, align 8, !tbaa !21
  %48 = sub i64 %46, %47
  store i64 %48, ptr %9, align 8, !tbaa !21
  %49 = load i64, ptr %9, align 8, !tbaa !21
  %50 = icmp ne i64 %49, 0
  br i1 %50, label %51, label %58

51:                                               ; preds = %42
  %52 = load ptr, ptr %5, align 8, !tbaa !68
  %53 = getelementptr inbounds nuw %struct.arrayobject, ptr %52, i32 0, i32 5
  %54 = load i64, ptr %53, align 8, !tbaa !105
  %55 = icmp sgt i64 %54, 0
  br i1 %55, label %56, label %58

56:                                               ; preds = %51
  %57 = load ptr, ptr @PyExc_BufferError, align 8, !tbaa !3
  call void @PyErr_SetString(ptr noundef %57, ptr noundef @.str.57)
  store i32 -1, ptr %4, align 4
  store i32 1, ptr %10, align 4
  br label %105

58:                                               ; preds = %51, %42
  %59 = load i64, ptr %9, align 8, !tbaa !21
  %60 = icmp sgt i64 %59, 0
  br i1 %60, label %61, label %104

61:                                               ; preds = %58
  %62 = load ptr, ptr %8, align 8, !tbaa !47
  %63 = load i64, ptr %7, align 8, !tbaa !21
  %64 = load i64, ptr %9, align 8, !tbaa !21
  %65 = sub i64 %63, %64
  %66 = load ptr, ptr %5, align 8, !tbaa !68
  %67 = getelementptr inbounds nuw %struct.arrayobject, ptr %66, i32 0, i32 3
  %68 = load ptr, ptr %67, align 8, !tbaa !99
  %69 = getelementptr inbounds nuw %struct.arraydescr, ptr %68, i32 0, i32 1
  %70 = load i32, ptr %69, align 4, !tbaa !52
  %71 = sext i32 %70 to i64
  %72 = mul i64 %65, %71
  %73 = getelementptr i8, ptr %62, i64 %72
  %74 = load ptr, ptr %8, align 8, !tbaa !47
  %75 = load i64, ptr %7, align 8, !tbaa !21
  %76 = load ptr, ptr %5, align 8, !tbaa !68
  %77 = getelementptr inbounds nuw %struct.arrayobject, ptr %76, i32 0, i32 3
  %78 = load ptr, ptr %77, align 8, !tbaa !99
  %79 = getelementptr inbounds nuw %struct.arraydescr, ptr %78, i32 0, i32 1
  %80 = load i32, ptr %79, align 4, !tbaa !52
  %81 = sext i32 %80 to i64
  %82 = mul i64 %75, %81
  %83 = getelementptr i8, ptr %74, i64 %82
  %84 = load ptr, ptr %5, align 8, !tbaa !68
  %85 = call i64 @Py_SIZE(ptr noundef %84)
  %86 = load i64, ptr %7, align 8, !tbaa !21
  %87 = sub i64 %85, %86
  %88 = load ptr, ptr %5, align 8, !tbaa !68
  %89 = getelementptr inbounds nuw %struct.arrayobject, ptr %88, i32 0, i32 3
  %90 = load ptr, ptr %89, align 8, !tbaa !99
  %91 = getelementptr inbounds nuw %struct.arraydescr, ptr %90, i32 0, i32 1
  %92 = load i32, ptr %91, align 4, !tbaa !52
  %93 = sext i32 %92 to i64
  %94 = mul i64 %87, %93
  call void @llvm.memmove.p0.p0.i64(ptr align 1 %73, ptr align 1 %83, i64 %94, i1 false)
  %95 = load ptr, ptr %5, align 8, !tbaa !68
  %96 = load ptr, ptr %5, align 8, !tbaa !68
  %97 = call i64 @Py_SIZE(ptr noundef %96)
  %98 = load i64, ptr %9, align 8, !tbaa !21
  %99 = sub i64 %97, %98
  %100 = call i32 @array_resize(ptr noundef %95, i64 noundef %99)
  %101 = icmp eq i32 %100, -1
  br i1 %101, label %102, label %103

102:                                              ; preds = %61
  store i32 -1, ptr %4, align 4
  store i32 1, ptr %10, align 4
  br label %105

103:                                              ; preds = %61
  br label %104

104:                                              ; preds = %103, %58
  store i32 0, ptr %4, align 4
  store i32 1, ptr %10, align 4
  br label %105

105:                                              ; preds = %104, %102, %56
  call void @llvm.lifetime.end.p0(i64 8, ptr %9) #8
  call void @llvm.lifetime.end.p0(i64 8, ptr %8) #8
  %106 = load i32, ptr %4, align 4
  ret i32 %106
}

; Function Attrs: alwaysinline nounwind uwtable
define internal void @Py_DECREF(ptr noundef %0) #4 {
  %2 = alloca ptr, align 8
  store ptr %0, ptr %2, align 8, !tbaa !3
  %3 = load ptr, ptr %2, align 8, !tbaa !3
  %4 = call i32 @_Py_IsImmortal(ptr noundef %3)
  %5 = icmp ne i32 %4, 0
  br i1 %5, label %6, label %7

6:                                                ; preds = %1
  br label %16

7:                                                ; preds = %1
  %8 = load ptr, ptr %2, align 8, !tbaa !3
  %9 = getelementptr inbounds nuw %struct._object, ptr %8, i32 0, i32 0
  %10 = getelementptr inbounds nuw %struct.anon, ptr %9, i32 0, i32 0
  %11 = load i32, ptr %10, align 8, !tbaa !36
  %12 = add i32 %11, -1
  store i32 %12, ptr %10, align 8, !tbaa !36
  %13 = icmp eq i32 %12, 0
  br i1 %13, label %14, label %16

14:                                               ; preds = %7
  %15 = load ptr, ptr %2, align 8, !tbaa !3
  call void @_Py_Dealloc(ptr noundef %15)
  br label %16

16:                                               ; preds = %6, %14, %7
  ret void
}

; Function Attrs: nounwind uwtable
define internal ptr @getarrayitem(ptr noundef %0, i64 noundef %1) #0 {
  %3 = alloca ptr, align 8
  %4 = alloca i64, align 8
  %5 = alloca ptr, align 8
  store ptr %0, ptr %3, align 8, !tbaa !3
  store i64 %1, ptr %4, align 8, !tbaa !21
  call void @llvm.lifetime.start.p0(i64 8, ptr %5) #8
  %6 = load ptr, ptr %3, align 8, !tbaa !3
  store ptr %6, ptr %5, align 8, !tbaa !68
  %7 = load ptr, ptr %5, align 8, !tbaa !68
  %8 = getelementptr inbounds nuw %struct.arrayobject, ptr %7, i32 0, i32 3
  %9 = load ptr, ptr %8, align 8, !tbaa !99
  %10 = getelementptr inbounds nuw %struct.arraydescr, ptr %9, i32 0, i32 2
  %11 = load ptr, ptr %10, align 8, !tbaa !124
  %12 = load ptr, ptr %5, align 8, !tbaa !68
  %13 = load i64, ptr %4, align 8, !tbaa !21
  %14 = call ptr %11(ptr noundef %12, i64 noundef %13)
  call void @llvm.lifetime.end.p0(i64 8, ptr %5) #8
  ret ptr %14
}

; Function Attrs: inlinehint nounwind uwtable
define internal i64 @Py_SIZE(ptr noundef %0) #3 {
  %2 = alloca ptr, align 8
  store ptr %0, ptr %2, align 8, !tbaa !3
  %3 = load ptr, ptr %2, align 8, !tbaa !3
  %4 = getelementptr inbounds nuw %struct.PyVarObject, ptr %3, i32 0, i32 1
  %5 = load i64, ptr %4, align 8, !tbaa !62
  ret i64 %5
}

; Function Attrs: nounwind uwtable
define internal ptr @array_array_remove(ptr noundef %0, ptr noundef %1) #0 {
  %3 = alloca ptr, align 8
  %4 = alloca ptr, align 8
  %5 = alloca ptr, align 8
  %6 = alloca i64, align 8
  %7 = alloca ptr, align 8
  %8 = alloca i32, align 4
  %9 = alloca i32, align 4
  store ptr %0, ptr %4, align 8, !tbaa !68
  store ptr %1, ptr %5, align 8, !tbaa !3
  call void @llvm.lifetime.start.p0(i64 8, ptr %6) #8
  store i64 0, ptr %6, align 8, !tbaa !21
  br label %10

10:                                               ; preds = %47, %2
  %11 = load i64, ptr %6, align 8, !tbaa !21
  %12 = load ptr, ptr %4, align 8, !tbaa !68
  %13 = call i64 @Py_SIZE(ptr noundef %12)
  %14 = icmp slt i64 %11, %13
  br i1 %14, label %15, label %50

15:                                               ; preds = %10
  call void @llvm.lifetime.start.p0(i64 8, ptr %7) #8
  call void @llvm.lifetime.start.p0(i64 4, ptr %8) #8
  %16 = load ptr, ptr %4, align 8, !tbaa !68
  %17 = load i64, ptr %6, align 8, !tbaa !21
  %18 = call ptr @getarrayitem(ptr noundef %16, i64 noundef %17)
  store ptr %18, ptr %7, align 8, !tbaa !3
  %19 = load ptr, ptr %7, align 8, !tbaa !3
  %20 = icmp eq ptr %19, null
  br i1 %20, label %21, label %22

21:                                               ; preds = %15
  store ptr null, ptr %3, align 8
  store i32 1, ptr %9, align 4
  br label %44

22:                                               ; preds = %15
  %23 = load ptr, ptr %7, align 8, !tbaa !3
  %24 = load ptr, ptr %5, align 8, !tbaa !3
  %25 = call i32 @PyObject_RichCompareBool(ptr noundef %23, ptr noundef %24, i32 noundef 2)
  store i32 %25, ptr %8, align 4, !tbaa !12
  %26 = load ptr, ptr %7, align 8, !tbaa !3
  call void @Py_DECREF(ptr noundef %26)
  %27 = load i32, ptr %8, align 4, !tbaa !12
  %28 = icmp sgt i32 %27, 0
  br i1 %28, label %29, label %38

29:                                               ; preds = %22
  %30 = load ptr, ptr %4, align 8, !tbaa !68
  %31 = load i64, ptr %6, align 8, !tbaa !21
  %32 = load i64, ptr %6, align 8, !tbaa !21
  %33 = add i64 %32, 1
  %34 = call i32 @array_del_slice(ptr noundef %30, i64 noundef %31, i64 noundef %33)
  %35 = icmp ne i32 %34, 0
  br i1 %35, label %36, label %37

36:                                               ; preds = %29
  store ptr null, ptr %3, align 8
  store i32 1, ptr %9, align 4
  br label %44

37:                                               ; preds = %29
  store ptr @_Py_NoneStruct, ptr %3, align 8
  store i32 1, ptr %9, align 4
  br label %44

38:                                               ; preds = %22
  %39 = load i32, ptr %8, align 4, !tbaa !12
  %40 = icmp slt i32 %39, 0
  br i1 %40, label %41, label %42

41:                                               ; preds = %38
  store ptr null, ptr %3, align 8
  store i32 1, ptr %9, align 4
  br label %44

42:                                               ; preds = %38
  br label %43

43:                                               ; preds = %42
  store i32 0, ptr %9, align 4
  br label %44

44:                                               ; preds = %43, %41, %37, %36, %21
  call void @llvm.lifetime.end.p0(i64 4, ptr %8) #8
  call void @llvm.lifetime.end.p0(i64 8, ptr %7) #8
  %45 = load i32, ptr %9, align 4
  switch i32 %45, label %52 [
    i32 0, label %46
  ]

46:                                               ; preds = %44
  br label %47

47:                                               ; preds = %46
  %48 = load i64, ptr %6, align 8, !tbaa !21
  %49 = add i64 %48, 1
  store i64 %49, ptr %6, align 8, !tbaa !21
  br label %10, !llvm.loop !141

50:                                               ; preds = %10
  %51 = load ptr, ptr @PyExc_ValueError, align 8, !tbaa !3
  call void @PyErr_SetString(ptr noundef %51, ptr noundef @.str.120)
  store ptr null, ptr %3, align 8
  store i32 1, ptr %9, align 4
  br label %52

52:                                               ; preds = %50, %44
  call void @llvm.lifetime.end.p0(i64 8, ptr %6) #8
  %53 = load ptr, ptr %3, align 8
  ret ptr %53
}