; Function Attrs: nounwind uwtable
define internal noundef ptr @array_array_remove(ptr noundef %0, ptr noundef %1) #0 {
  %3 = getelementptr i8, ptr %0, i64 16
  %.val32 = load i64, ptr %3, align 8, !tbaa !40
  %4 = icmp sgt i64 %.val32, 0
  br i1 %4, label %.lr.ph, label %._crit_edge

.lr.ph:                                           ; preds = %2
  %5 = getelementptr inbounds nuw i8, ptr %0, i64 40
  br label %6

6:                                                ; preds = %.lr.ph, %47
  %.01633 = phi i64 [ 0, %.lr.ph ], [ %48, %47 ]
  %7 = load ptr, ptr %5, align 8, !tbaa !76
  %8 = getelementptr inbounds nuw i8, ptr %7, i64 8
  %9 = load ptr, ptr %8, align 8, !tbaa !97
  %10 = tail call ptr %9(ptr noundef nonnull %0, i64 noundef %.01633) #11
  %11 = icmp eq ptr %10, null
  br i1 %11, label %array_del_slice.exit.thread23, label %12

12:                                               ; preds = %6
  %13 = tail call i32 @PyObject_RichCompareBool(ptr noundef nonnull %10, ptr noundef %1, i32 noundef 2) #11
  %14 = load i32, ptr %10, align 8, !tbaa !17
  %.not.i = icmp sgt i32 %14, -1
  br i1 %.not.i, label %15, label %Py_DECREF.exit

15:                                               ; preds = %12
  %16 = add nsw i32 %14, -1
  store i32 %16, ptr %10, align 8, !tbaa !17
  %17 = icmp eq i32 %16, 0
  br i1 %17, label %18, label %Py_DECREF.exit

18:                                               ; preds = %15
  tail call void @_Py_Dealloc(ptr noundef nonnull %10) #11
  br label %Py_DECREF.exit

Py_DECREF.exit:                                   ; preds = %12, %15, %18
  %19 = icmp sgt i32 %13, 0
  br i1 %19, label %20, label %array_del_slice.exit

20:                                               ; preds = %Py_DECREF.exit
  %21 = add nuw nsw i64 %.01633, 1
  %.val38.i = load i64, ptr %3, align 8, !tbaa !40
  %spec.select.i = tail call i64 @llvm.smin.i64(i64 %.01633, i64 %.val38.i)
  %spec.select54.i = tail call i64 @llvm.smin.i64(i64 %21, i64 %.val38.i)
  %22 = getelementptr inbounds nuw i8, ptr %0, i64 24
  %23 = load ptr, ptr %22, align 8, !tbaa !53
  %24 = sub i64 %spec.select54.i, %spec.select.i
  %.not.i19 = icmp eq i64 %spec.select54.i, %spec.select.i
  br i1 %.not.i19, label %array_del_slice.exit.thread23, label %25

25:                                               ; preds = %20
  %26 = getelementptr inbounds nuw i8, ptr %0, i64 56
  %27 = load i64, ptr %26, align 8, !tbaa !83
  %28 = icmp sgt i64 %27, 0
  br i1 %28, label %29, label %31

29:                                               ; preds = %25
  %30 = load ptr, ptr @PyExc_BufferError, align 8, !tbaa !18
  tail call void @PyErr_SetString(ptr noundef %30, ptr noundef nonnull @.str.57) #11
  br label %array_del_slice.exit.thread

31:                                               ; preds = %25
  %32 = icmp sgt i64 %24, 0
  br i1 %32, label %33, label %array_del_slice.exit.thread23

33:                                               ; preds = %31
  %34 = load ptr, ptr %5, align 8, !tbaa !76
  %35 = getelementptr inbounds nuw i8, ptr %34, i64 4
  %36 = load i32, ptr %35, align 4, !tbaa !49
  %37 = sext i32 %36 to i64
  %38 = mul i64 %spec.select.i, %37
  %39 = getelementptr i8, ptr %23, i64 %38
  %40 = mul i64 %spec.select54.i, %37
  %41 = getelementptr i8, ptr %23, i64 %40
  %42 = sub i64 %.val38.i, %spec.select54.i
  %43 = mul i64 %42, %37
  tail call void @llvm.memmove.p0.p0.i64(ptr align 1 %39, ptr align 1 %41, i64 %43, i1 false)
  %.val.i = load i64, ptr %3, align 8, !tbaa !40
  %44 = sub i64 %.val.i, %24
  %45 = tail call fastcc i32 @array_resize(ptr noundef nonnull %0, i64 noundef %44)
  %46 = icmp eq i32 %45, -1
  br i1 %46, label %array_del_slice.exit.thread, label %array_del_slice.exit.thread23

array_del_slice.exit.thread:                      ; preds = %29, %33
  br label %array_del_slice.exit.thread23

array_del_slice.exit:                             ; preds = %Py_DECREF.exit
  %.not = icmp eq i32 %13, 0
  br i1 %.not, label %47, label %array_del_slice.exit.thread23

47:                                               ; preds = %array_del_slice.exit
  %48 = add nuw nsw i64 %.01633, 1
  %.val = load i64, ptr %3, align 8, !tbaa !40
  %49 = icmp slt i64 %48, %.val
  br i1 %49, label %6, label %._crit_edge, !llvm.loop !124

._crit_edge:                                      ; preds = %47, %2
  %50 = load ptr, ptr @PyExc_ValueError, align 8, !tbaa !18
  tail call void @PyErr_SetString(ptr noundef %50, ptr noundef nonnull @.str.120) #11
  br label %array_del_slice.exit.thread23

array_del_slice.exit.thread23:                    ; preds = %6, %array_del_slice.exit, %array_del_slice.exit.thread, %33, %31, %20, %._crit_edge
  %.2 = phi ptr [ null, %._crit_edge ], [ @_Py_NoneStruct, %20 ], [ @_Py_NoneStruct, %31 ], [ @_Py_NoneStruct, %33 ], [ null, %array_del_slice.exit.thread ], [ null, %array_del_slice.exit ], [ null, %6 ]
  ret ptr %.2
}